target datalayout = "e-m:e-p270:32:32-p271:32:32-p272:64:64-i64:64-i128:128-f80:128-n8:16:32:64-S128"
target triple = "x86_64-pc-linux-gnu"

%struct.strvec = type { ptr, i64, i64 }
%struct.strbuf = type { i64, i64, ptr }
%struct.oidset = type { %struct.kh_oid_set }
%struct.kh_oid_set = type { i32, i32, i32, i32, ptr, ptr, ptr }
%struct.rev_info = type { ptr, %struct.object_array, ptr, %struct.object_array, %struct.rev_cmdline_info, %struct.list_objects_filter_options, %struct.ref_exclusions, ptr, ptr, ptr, %struct.pathspec, i32, i32, i32, i32, i64, i32, i32, %struct.date_mode, i32, i32, i32, i32, ptr, i32, i32, ptr, ptr, i32, ptr, ptr, %struct.ident_split, ptr, i32, ptr, ptr, ptr, i32, i32, i32, ptr, %struct.grep_opt, ptr, i32, i32, i64, i64, i64, i32, i32, ptr, ptr, ptr, %struct.diff_options, %struct.diff_options, ptr, %struct.decoration, %struct.decoration, %struct.decoration, %struct.display_notes_opt, ptr, ptr, ptr, ptr, ptr, i32, ptr, i32, i32, i32, %struct.decoration, ptr, ptr, ptr, ptr, ptr, ptr, ptr, i32, ptr, i32, ptr, %struct.oidset }
%struct.object_array = type { i32, i32, ptr }
%struct.rev_cmdline_info = type { i32, i32, ptr }
%struct.list_objects_filter_options = type { %struct.strbuf, i32, i8, ptr, i64, i64, i32, i64, i64, ptr }
%struct.ref_exclusions = type { %struct.string_list, %struct.strvec, i8 }
%struct.string_list = type { ptr, i64, i64, i8, ptr }
%struct.pathspec = type { i32, i8, i32, i32, ptr }
%struct.date_mode = type { i32, i32, ptr }
%struct.ident_split = type { ptr, ptr, ptr, ptr, ptr, ptr, ptr, ptr }
%struct.grep_opt = type { ptr, ptr, ptr, ptr, ptr, ptr, i32, i32, i32, i32, i32, i32, i32, i32, i32, i32, i32, i32, i32, i32, i32, i32, i32, i32, i32, i32, i32, i32, i32, i32, i32, i32, [9 x [75 x i8]], i32, i32, i32, i32, i32, i32, i32, ptr, ptr, ptr }
%struct.diff_options = type { ptr, ptr, i32, i32, ptr, i32, ptr, i64, i64, ptr, ptr, ptr, ptr, %struct.diff_flags, i32, i32, i32, i32, i32, i32, i32, i32, i32, i32, i32, i32, i32, i32, i32, i32, i32, i32, i32, i32, i32, i32, ptr, i32, ptr, i32, i32, ptr, i64, i64, i32, i32, i32, i32, ptr, i32, i32, ptr, i32, i32, ptr, ptr, i32, [3 x i8], %struct.pathspec, ptr, ptr, ptr, ptr, ptr, ptr, ptr, ptr, i32, ptr, i32, i32, ptr, ptr, i32 }
%struct.diff_flags = type { i32, i32, i32, i32, i32, i32, i32, i32, i32, i32, i32, i32, i32, i32, i32, i32, i32, i32, i32, i32, i32, i32, i32, i32, i32, i32, i32, i32, i32, i32, i32, i32, i32, i32, i32 }
%struct.display_notes_opt = type { i32, %struct.string_list }
%struct.decoration = type { ptr, i32, i32, ptr }
%struct.rev_cmdline_entry = type { ptr, ptr, i32, i32 }
%struct.add_alternate_refs_data = type { ptr, i32 }

@.str.37 = private unnamed_addr constant [27 x i8] c"size_t overflow: %lu * %lu\00", align 1
@.str.38 = private unnamed_addr constant [14 x i8] c"bad object %s\00", align 1
@.str.206 = private unnamed_addr constant [11 x i8] c".alternate\00", align 1

; Function Attrs: nounwind uwtable
define internal void @add_pending_object_with_mode(ptr noundef %0, ptr noundef %1, ptr noundef %2, i32 noundef %3) #0 {
  %5 = alloca ptr, align 8
  %6 = alloca ptr, align 8
  %7 = alloca ptr, align 8
  %8 = alloca i32, align 4
  store ptr %0, ptr %5, align 8, !tbaa !88
  store ptr %1, ptr %6, align 8, !tbaa !37
  store ptr %2, ptr %7, align 8, !tbaa !39
  store i32 %3, ptr %8, align 4, !tbaa !9
  %9 = load ptr, ptr %5, align 8, !tbaa !88
  %10 = load ptr, ptr %6, align 8, !tbaa !37
  %11 = load ptr, ptr %7, align 8, !tbaa !39
  %12 = load i32, ptr %8, align 4, !tbaa !9
  call void @add_pending_object_with_path(ptr noundef %9, ptr noundef %10, ptr noundef %11, i32 noundef %12, ptr noundef null)
  ret void
}

; Function Attrs: inlinehint nounwind uwtable
define internal i64 @st_mult(i64 noundef %0, i64 noundef %1) #4 {
  %3 = alloca i64, align 8
  %4 = alloca i64, align 8
  store i64 %0, ptr %3, align 8, !tbaa !34
  store i64 %1, ptr %4, align 8, !tbaa !34
  %5 = load i64, ptr %3, align 8, !tbaa !34
  %6 = icmp ne i64 %5, 0
  br i1 %6, label %7, label %15

7:                                                ; preds = %2
  %8 = load i64, ptr %4, align 8, !tbaa !34
  %9 = load i64, ptr %3, align 8, !tbaa !34
  %10 = udiv i64 -1, %9
  %11 = icmp ugt i64 %8, %10
  br i1 %11, label %12, label %15

12:                                               ; preds = %7
  %13 = load i64, ptr %3, align 8, !tbaa !34
  %14 = load i64, ptr %4, align 8, !tbaa !34
  call void (ptr, ...) @die(ptr noundef @.str.37, i64 noundef %13, i64 noundef %14) #13
  unreachable

15:                                               ; preds = %7, %2
  %16 = load i64, ptr %3, align 8, !tbaa !34
  %17 = load i64, ptr %4, align 8, !tbaa !34
  %18 = mul i64 %16, %17
  ret i64 %18
}

; Function Attrs: nounwind uwtable
define dso_local void @add_pending_object(ptr noundef %0, ptr noundef %1, ptr noundef %2) #0 {
  %4 = alloca ptr, align 8
  %5 = alloca ptr, align 8
  %6 = alloca ptr, align 8
  store ptr %0, ptr %4, align 8, !tbaa !88
  store ptr %1, ptr %5, align 8, !tbaa !37
  store ptr %2, ptr %6, align 8, !tbaa !39
  %7 = load ptr, ptr %4, align 8, !tbaa !88
  %8 = load ptr, ptr %5, align 8, !tbaa !37
  %9 = load ptr, ptr %6, align 8, !tbaa !39
  call void @add_pending_object_with_mode(ptr noundef %7, ptr noundef %8, ptr noundef %9, i32 noundef 12288)
  ret void
}

; Function Attrs: nounwind uwtable
define internal void @add_rev_cmdline(ptr noundef %0, ptr noundef %1, ptr noundef %2, i32 noundef %3, i32 noundef %4) #0 {
  %6 = alloca ptr, align 8
  %7 = alloca ptr, align 8
  %8 = alloca ptr, align 8
  %9 = alloca i32, align 4
  %10 = alloca i32, align 4
  %11 = alloca ptr, align 8
  %12 = alloca i32, align 4
  store ptr %0, ptr %6, align 8, !tbaa !88
  store ptr %1, ptr %7, align 8, !tbaa !37
  store ptr %2, ptr %8, align 8, !tbaa !39
  store i32 %3, ptr %9, align 4, !tbaa !9
  store i32 %4, ptr %10, align 4, !tbaa !9
  call void @llvm.lifetime.start.p0(i64 8, ptr %11) #12
  %13 = load ptr, ptr %6, align 8, !tbaa !88
  %14 = getelementptr inbounds nuw %struct.rev_info, ptr %13, i32 0, i32 4
  store ptr %14, ptr %11, align 8, !tbaa !309
  call void @llvm.lifetime.start.p0(i64 4, ptr %12) #12
  %15 = load ptr, ptr %11, align 8, !tbaa !309
  %16 = getelementptr inbounds nuw %struct.rev_cmdline_info, ptr %15, i32 0, i32 0
  %17 = load i32, ptr %16, align 8, !tbaa !311
  store i32 %17, ptr %12, align 4, !tbaa !9
  br label %18

18:                                               ; preds = %5
  %19 = load i32, ptr %12, align 4, !tbaa !9
  %20 = add i32 %19, 1
  %21 = load ptr, ptr %11, align 8, !tbaa !309
  %22 = getelementptr inbounds nuw %struct.rev_cmdline_info, ptr %21, i32 0, i32 1
  %23 = load i32, ptr %22, align 4, !tbaa !419
  %24 = icmp ugt i32 %20, %23
  br i1 %24, label %25, label %61

25:                                               ; preds = %18
  %26 = load ptr, ptr %11, align 8, !tbaa !309
  %27 = getelementptr inbounds nuw %struct.rev_cmdline_info, ptr %26, i32 0, i32 1
  %28 = load i32, ptr %27, align 4, !tbaa !419
  %29 = add i32 %28, 16
  %30 = mul i32 %29, 3
  %31 = udiv i32 %30, 2
  %32 = load i32, ptr %12, align 4, !tbaa !9
  %33 = add i32 %32, 1
  %34 = icmp ult i32 %31, %33
  br i1 %34, label %35, label %40

35:                                               ; preds = %25
  %36 = load i32, ptr %12, align 4, !tbaa !9
  %37 = add i32 %36, 1
  %38 = load ptr, ptr %11, align 8, !tbaa !309
  %39 = getelementptr inbounds nuw %struct.rev_cmdline_info, ptr %38, i32 0, i32 1
  store i32 %37, ptr %39, align 4, !tbaa !419
  br label %49

40:                                               ; preds = %25
  %41 = load ptr, ptr %11, align 8, !tbaa !309
  %42 = getelementptr inbounds nuw %struct.rev_cmdline_info, ptr %41, i32 0, i32 1
  %43 = load i32, ptr %42, align 4, !tbaa !419
  %44 = add i32 %43, 16
  %45 = mul i32 %44, 3
  %46 = udiv i32 %45, 2
  %47 = load ptr, ptr %11, align 8, !tbaa !309
  %48 = getelementptr inbounds nuw %struct.rev_cmdline_info, ptr %47, i32 0, i32 1
  store i32 %46, ptr %48, align 4, !tbaa !419
  br label %49

49:                                               ; preds = %40, %35
  %50 = load ptr, ptr %11, align 8, !tbaa !309
  %51 = getelementptr inbounds nuw %struct.rev_cmdline_info, ptr %50, i32 0, i32 2
  %52 = load ptr, ptr %51, align 8, !tbaa !312
  %53 = load ptr, ptr %11, align 8, !tbaa !309
  %54 = getelementptr inbounds nuw %struct.rev_cmdline_info, ptr %53, i32 0, i32 1
  %55 = load i32, ptr %54, align 4, !tbaa !419
  %56 = zext i32 %55 to i64
  %57 = call i64 @st_mult(i64 noundef 24, i64 noundef %56)
  %58 = call ptr @xrealloc(ptr noundef %52, i64 noundef %57)
  %59 = load ptr, ptr %11, align 8, !tbaa !309
  %60 = getelementptr inbounds nuw %struct.rev_cmdline_info, ptr %59, i32 0, i32 2
  store ptr %58, ptr %60, align 8, !tbaa !312
  br label %61

61:                                               ; preds = %49, %18
  br label %62

62:                                               ; preds = %61
  br label %63

63:                                               ; preds = %62
  %64 = load ptr, ptr %7, align 8, !tbaa !37
  %65 = load ptr, ptr %11, align 8, !tbaa !309
  %66 = getelementptr inbounds nuw %struct.rev_cmdline_info, ptr %65, i32 0, i32 2
  %67 = load ptr, ptr %66, align 8, !tbaa !312
  %68 = load i32, ptr %12, align 4, !tbaa !9
  %69 = zext i32 %68 to i64
  %70 = getelementptr inbounds nuw %struct.rev_cmdline_entry, ptr %67, i64 %69
  %71 = getelementptr inbounds nuw %struct.rev_cmdline_entry, ptr %70, i32 0, i32 0
  store ptr %64, ptr %71, align 8, !tbaa !420
  %72 = load ptr, ptr %8, align 8, !tbaa !39
  %73 = call ptr @xstrdup(ptr noundef %72)
  %74 = load ptr, ptr %11, align 8, !tbaa !309
  %75 = getelementptr inbounds nuw %struct.rev_cmdline_info, ptr %74, i32 0, i32 2
  %76 = load ptr, ptr %75, align 8, !tbaa !312
  %77 = load i32, ptr %12, align 4, !tbaa !9
  %78 = zext i32 %77 to i64
  %79 = getelementptr inbounds nuw %struct.rev_cmdline_entry, ptr %76, i64 %78
  %80 = getelementptr inbounds nuw %struct.rev_cmdline_entry, ptr %79, i32 0, i32 1
  store ptr %73, ptr %80, align 8, !tbaa !313
  %81 = load i32, ptr %9, align 4, !tbaa !9
  %82 = load ptr, ptr %11, align 8, !tbaa !309
  %83 = getelementptr inbounds nuw %struct.rev_cmdline_info, ptr %82, i32 0, i32 2
  %84 = load ptr, ptr %83, align 8, !tbaa !312
  %85 = load i32, ptr %12, align 4, !tbaa !9
  %86 = zext i32 %85 to i64
  %87 = getelementptr inbounds nuw %struct.rev_cmdline_entry, ptr %84, i64 %86
  %88 = getelementptr inbounds nuw %struct.rev_cmdline_entry, ptr %87, i32 0, i32 2
  store i32 %81, ptr %88, align 8, !tbaa !421
  %89 = load i32, ptr %10, align 4, !tbaa !9
  %90 = load ptr, ptr %11, align 8, !tbaa !309
  %91 = getelementptr inbounds nuw %struct.rev_cmdline_info, ptr %90, i32 0, i32 2
  %92 = load ptr, ptr %91, align 8, !tbaa !312
  %93 = load i32, ptr %12, align 4, !tbaa !9
  %94 = zext i32 %93 to i64
  %95 = getelementptr inbounds nuw %struct.rev_cmdline_entry, ptr %92, i64 %94
  %96 = getelementptr inbounds nuw %struct.rev_cmdline_entry, ptr %95, i32 0, i32 3
  store i32 %89, ptr %96, align 4, !tbaa !422
  %97 = load ptr, ptr %11, align 8, !tbaa !309
  %98 = getelementptr inbounds nuw %struct.rev_cmdline_info, ptr %97, i32 0, i32 0
  %99 = load i32, ptr %98, align 8, !tbaa !311
  %100 = add i32 %99, 1
  store i32 %100, ptr %98, align 8, !tbaa !311
  call void @llvm.lifetime.end.p0(i64 4, ptr %12) #12
  call void @llvm.lifetime.end.p0(i64 8, ptr %11) #12
  ret void
}

; Function Attrs: nounwind uwtable
define internal ptr @get_reference(ptr noundef %0, ptr noundef %1, ptr noundef %2, i32 noundef %3) #0 {
  %5 = alloca ptr, align 8
  %6 = alloca ptr, align 8
  %7 = alloca ptr, align 8
  %8 = alloca ptr, align 8
  %9 = alloca i32, align 4
  %10 = alloca ptr, align 8
  %11 = alloca i32, align 4
  store ptr %0, ptr %6, align 8, !tbaa !88
  store ptr %1, ptr %7, align 8, !tbaa !39
  store ptr %2, ptr %8, align 8, !tbaa !54
  store i32 %3, ptr %9, align 4, !tbaa !9
  call void @llvm.lifetime.start.p0(i64 8, ptr %10) #12
  %12 = load ptr, ptr %6, align 8, !tbaa !88
  %13 = getelementptr inbounds nuw %struct.rev_info, ptr %12, i32 0, i32 2
  %14 = load ptr, ptr %13, align 8, !tbaa !105
  %15 = load ptr, ptr %8, align 8, !tbaa !54
  %16 = load ptr, ptr %6, align 8, !tbaa !88
  %17 = getelementptr inbounds nuw %struct.rev_info, ptr %16, i32 0, i32 15
  %18 = load i64, ptr %17, align 8
  %19 = lshr i64 %18, 16
  %20 = and i64 %19, 1
  %21 = trunc i64 %20 to i32
  %22 = icmp ne i32 %21, 0
  %23 = select i1 %22, i32 0, i32 3
  %24 = call ptr @parse_object_with_flags(ptr noundef %14, ptr noundef %15, i32 noundef %23)
  store ptr %24, ptr %10, align 8, !tbaa !37
  %25 = load ptr, ptr %10, align 8, !tbaa !37
  %26 = icmp ne ptr %25, null
  br i1 %26, label %66, label %27

27:                                               ; preds = %4
  %28 = load ptr, ptr %6, align 8, !tbaa !88
  %29 = getelementptr inbounds nuw %struct.rev_info, ptr %28, i32 0, i32 15
  %30 = load i64, ptr %29, align 8
  %31 = and i64 %30, 1
  %32 = trunc i64 %31 to i32
  %33 = icmp ne i32 %32, 0
  br i1 %33, label %34, label %35

34:                                               ; preds = %27
  store ptr null, ptr %5, align 8
  store i32 1, ptr %11, align 4
  br label %78

35:                                               ; preds = %27
  %36 = load ptr, ptr %6, align 8, !tbaa !88
  %37 = getelementptr inbounds nuw %struct.rev_info, ptr %36, i32 0, i32 15
  %38 = load i64, ptr %37, align 8
  %39 = lshr i64 %38, 43
  %40 = and i64 %39, 1
  %41 = trunc i64 %40 to i32
  %42 = icmp ne i32 %41, 0
  br i1 %42, label %43, label %51

43:                                               ; preds = %35
  %44 = load ptr, ptr %6, align 8, !tbaa !88
  %45 = getelementptr inbounds nuw %struct.rev_info, ptr %44, i32 0, i32 2
  %46 = load ptr, ptr %45, align 8, !tbaa !105
  %47 = load ptr, ptr %8, align 8, !tbaa !54
  %48 = call i32 @is_promisor_object(ptr noundef %46, ptr noundef %47)
  %49 = icmp ne i32 %48, 0
  br i1 %49, label %50, label %51

50:                                               ; preds = %43
  store ptr null, ptr %5, align 8
  store i32 1, ptr %11, align 4
  br label %78

51:                                               ; preds = %43, %35
  %52 = load ptr, ptr %6, align 8, !tbaa !88
  %53 = getelementptr inbounds nuw %struct.rev_info, ptr %52, i32 0, i32 15
  %54 = load i64, ptr %53, align 8
  %55 = lshr i64 %54, 42
  %56 = and i64 %55, 1
  %57 = trunc i64 %56 to i32
  %58 = icmp ne i32 %57, 0
  br i1 %58, label %59, label %64

59:                                               ; preds = %51
  %60 = load ptr, ptr %6, align 8, !tbaa !88
  %61 = getelementptr inbounds nuw %struct.rev_info, ptr %60, i32 0, i32 82
  %62 = load ptr, ptr %8, align 8, !tbaa !54
  %63 = call i32 @oidset_insert(ptr noundef %61, ptr noundef %62)
  store ptr null, ptr %5, align 8
  store i32 1, ptr %11, align 4
  br label %78

64:                                               ; preds = %51
  %65 = load ptr, ptr %7, align 8, !tbaa !39
  call void (ptr, ...) @die(ptr noundef @.str.38, ptr noundef %65) #13
  unreachable

66:                                               ; preds = %4
  %67 = load i32, ptr %9, align 4, !tbaa !9
  %68 = load ptr, ptr %10, align 8, !tbaa !37
  %69 = load i32, ptr %68, align 4
  %70 = lshr i32 %69, 4
  %71 = or i32 %70, %67
  %72 = load i32, ptr %68, align 4
  %73 = and i32 %71, 268435455
  %74 = shl i32 %73, 4
  %75 = and i32 %72, 15
  %76 = or i32 %75, %74
  store i32 %76, ptr %68, align 4
  %77 = load ptr, ptr %10, align 8, !tbaa !37
  store ptr %77, ptr %5, align 8
  store i32 1, ptr %11, align 4
  br label %78

78:                                               ; preds = %66, %59, %50, %34
  call void @llvm.lifetime.end.p0(i64 8, ptr %10) #12
  %79 = load ptr, ptr %5, align 8
  ret ptr %79
}

; Function Attrs: nounwind uwtable
define internal void @add_one_alternate_ref(ptr noundef %0, ptr noundef %1) #0 {
  %3 = alloca ptr, align 8
  %4 = alloca ptr, align 8
  %5 = alloca ptr, align 8
  %6 = alloca ptr, align 8
  %7 = alloca ptr, align 8
  store ptr %0, ptr %3, align 8, !tbaa !54
  store ptr %1, ptr %4, align 8, !tbaa !21
  call void @llvm.lifetime.start.p0(i64 8, ptr %5) #12
  store ptr @.str.206, ptr %5, align 8, !tbaa !39
  call void @llvm.lifetime.start.p0(i64 8, ptr %6) #12
  %8 = load ptr, ptr %4, align 8, !tbaa !21
  store ptr %8, ptr %6, align 8, !tbaa !433
  call void @llvm.lifetime.start.p0(i64 8, ptr %7) #12
  %9 = load ptr, ptr %6, align 8, !tbaa !433
  %10 = getelementptr inbounds nuw %struct.add_alternate_refs_data, ptr %9, i32 0, i32 0
  %11 = load ptr, ptr %10, align 8, !tbaa !429
  %12 = load ptr, ptr %5, align 8, !tbaa !39
  %13 = load ptr, ptr %3, align 8, !tbaa !54
  %14 = load ptr, ptr %6, align 8, !tbaa !433
  %15 = getelementptr inbounds nuw %struct.add_alternate_refs_data, ptr %14, i32 0, i32 1
  %16 = load i32, ptr %15, align 8, !tbaa !431
  %17 = call ptr @get_reference(ptr noundef %11, ptr noundef %12, ptr noundef %13, i32 noundef %16)
  store ptr %17, ptr %7, align 8, !tbaa !37
  %18 = load ptr, ptr %6, align 8, !tbaa !433
  %19 = getelementptr inbounds nuw %struct.add_alternate_refs_data, ptr %18, i32 0, i32 0
  %20 = load ptr, ptr %19, align 8, !tbaa !429
  %21 = load ptr, ptr %7, align 8, !tbaa !37
  %22 = load ptr, ptr %5, align 8, !tbaa !39
  %23 = load ptr, ptr %6, align 8, !tbaa !433
  %24 = getelementptr inbounds nuw %struct.add_alternate_refs_data, ptr %23, i32 0, i32 1
  %25 = load i32, ptr %24, align 8, !tbaa !431
  call void @add_rev_cmdline(ptr noundef %20, ptr noundef %21, ptr noundef %22, i32 noundef 5, i32 noundef %25)
  %26 = load ptr, ptr %6, align 8, !tbaa !433
  %27 = getelementptr inbounds nuw %struct.add_alternate_refs_data, ptr %26, i32 0, i32 0
  %28 = load ptr, ptr %27, align 8, !tbaa !429
  %29 = load ptr, ptr %7, align 8, !tbaa !37
  %30 = load ptr, ptr %5, align 8, !tbaa !39
  call void @add_pending_object(ptr noundef %28, ptr noundef %29, ptr noundef %30)
  call void @llvm.lifetime.end.p0(i64 8, ptr %7) #12
  call void @llvm.lifetime.end.p0(i64 8, ptr %6) #12
  call void @llvm.lifetime.end.p0(i64 8, ptr %5) #12
  ret void
}