; Function Attrs: nounwind uwtable
define internal void @add_one_alternate_ref(ptr noundef %0, ptr noundef readonly captures(none) %1) #2 {
  %3 = load ptr, ptr %1, align 8, !tbaa !268
  %4 = getelementptr inbounds nuw i8, ptr %1, i64 8
  %5 = load i32, ptr %4, align 8, !tbaa !270
  %6 = getelementptr inbounds nuw i8, ptr %3, i64 24
  %7 = load ptr, ptr %6, align 8, !tbaa !73
  %8 = getelementptr inbounds nuw i8, ptr %3, i64 288
  %9 = load i64, ptr %8, align 8
  %10 = and i64 %9, 65536
  %.not.i = icmp eq i64 %10, 0
  %11 = select i1 %.not.i, i32 3, i32 0
  %12 = tail call ptr @parse_object_with_flags(ptr noundef %7, ptr noundef %0, i32 noundef %11) #26
  %.not16.i = icmp eq ptr %12, null
  br i1 %.not16.i, label %13, label %28

13:                                               ; preds = %2
  %14 = load i64, ptr %8, align 8
  %15 = and i64 %14, 1
  %.not17.i = icmp eq i64 %15, 0
  br i1 %.not17.i, label %16, label %get_reference.exit

16:                                               ; preds = %13
  %17 = and i64 %14, 8796093022208
  %.not18.i = icmp eq i64 %17, 0
  br i1 %.not18.i, label %21, label %18

18:                                               ; preds = %16
  %19 = load ptr, ptr %6, align 8, !tbaa !73
  %20 = tail call i32 @is_promisor_object(ptr noundef %19, ptr noundef %0) #26
  %.not19.i = icmp eq i32 %20, 0
  br i1 %.not19.i, label %._crit_edge.i, label %get_reference.exit

._crit_edge.i:                                    ; preds = %18
  %.pre.i = load i64, ptr %8, align 8
  br label %21

21:                                               ; preds = %._crit_edge.i, %16
  %22 = phi i64 [ %.pre.i, %._crit_edge.i ], [ %14, %16 ]
  %23 = and i64 %22, 4398046511104
  %.not20.i = icmp eq i64 %23, 0
  br i1 %.not20.i, label %27, label %24

24:                                               ; preds = %21
  %25 = getelementptr inbounds nuw i8, ptr %3, i64 2968
  %26 = tail call i32 @oidset_insert(ptr noundef nonnull %25, ptr noundef %0) #26
  br label %get_reference.exit

27:                                               ; preds = %21
  tail call void (ptr, ...) @die(ptr noundef nonnull @.str.38, ptr noundef nonnull @.str.206) #28
  unreachable

28:                                               ; preds = %2
  %29 = load i32, ptr %12, align 4
  %30 = shl i32 %5, 4
  %31 = or i32 %29, %30
  store i32 %31, ptr %12, align 4
  br label %get_reference.exit

get_reference.exit:                               ; preds = %13, %18, %24, %28
  %32 = load ptr, ptr %1, align 8, !tbaa !268
  %33 = load i32, ptr %4, align 8, !tbaa !270
  %34 = getelementptr inbounds nuw i8, ptr %32, i64 48
  %35 = load i32, ptr %34, align 8, !tbaa !187
  %36 = add i32 %35, 1
  %37 = getelementptr inbounds nuw i8, ptr %32, i64 52
  %38 = load i32, ptr %37, align 4, !tbaa !188
  %39 = icmp ugt i32 %36, %38
  br i1 %39, label %st_mult.exit.i, label %._crit_edge.i12

._crit_edge.i12:                                  ; preds = %get_reference.exit
  %.phi.trans.insert.i = getelementptr inbounds nuw i8, ptr %32, i64 56
  %.pre.i13 = load ptr, ptr %.phi.trans.insert.i, align 8, !tbaa !189
  br label %add_rev_cmdline.exit

st_mult.exit.i:                                   ; preds = %get_reference.exit
  %40 = mul i32 %38, 3
  %41 = add i32 %40, 48
  %42 = lshr i32 %41, 1
  %..i = tail call i32 @llvm.umax.i32(i32 %42, i32 %36)
  store i32 %..i, ptr %37, align 4, !tbaa !188
  %43 = zext i32 %..i to i64
  %44 = getelementptr inbounds nuw i8, ptr %32, i64 56
  %45 = load ptr, ptr %44, align 8, !tbaa !189
  %46 = mul nuw nsw i64 %43, 24
  %47 = tail call ptr @xrealloc(ptr noundef %45, i64 noundef %46) #26
  store ptr %47, ptr %44, align 8, !tbaa !189
  br label %add_rev_cmdline.exit

add_rev_cmdline.exit:                             ; preds = %._crit_edge.i12, %st_mult.exit.i
  %48 = phi ptr [ %.pre.i13, %._crit_edge.i12 ], [ %47, %st_mult.exit.i ]
  %49 = getelementptr inbounds nuw i8, ptr %32, i64 56
  %50 = zext i32 %35 to i64
  %51 = getelementptr inbounds nuw %struct.rev_cmdline_entry, ptr %48, i64 %50
  store ptr %12, ptr %51, align 8, !tbaa !190
  %52 = tail call ptr @xstrdup(ptr noundef nonnull @.str.206) #26
  %53 = load ptr, ptr %49, align 8, !tbaa !189
  %54 = getelementptr inbounds nuw %struct.rev_cmdline_entry, ptr %53, i64 %50, i32 1
  store ptr %52, ptr %54, align 8, !tbaa !193
  %55 = getelementptr inbounds nuw %struct.rev_cmdline_entry, ptr %53, i64 %50, i32 2
  store i32 5, ptr %55, align 8, !tbaa !194
  %56 = getelementptr inbounds nuw %struct.rev_cmdline_entry, ptr %53, i64 %50, i32 3
  store i32 %33, ptr %56, align 4, !tbaa !195
  %57 = load i32, ptr %34, align 8, !tbaa !187
  %58 = add i32 %57, 1
  store i32 %58, ptr %34, align 8, !tbaa !187
  %59 = load ptr, ptr %1, align 8, !tbaa !268
  tail call fastcc void @add_pending_object_with_path(ptr noundef %59, ptr noundef %12, ptr noundef nonnull @.str.206, i32 noundef 12288, ptr noundef null)
  ret void
}